target datalayout = "e-m:e-p270:32:32-p271:32:32-p272:64:64-i64:64-i128:128-f80:128-n8:16:32:64-S128"
target triple = "x86_64-pc-linux-gnu"

%class.Node_List = type <{ %class.Node_Array, i32, [4 x i8] }>
%class.Node_Array = type { ptr, i32, ptr }
%class.MemoryGraphFixer = type <{ %class.Node_List, i32, [4 x i8], ptr, i8, [7 x i8] }>

; Function Attrs: mustprogress nounwind uwtable
define hidden noundef ptr @_ZNK16MemoryGraphFixer18allocate_merge_memEP4NodeS1_S1_(ptr noundef nonnull align 8 dereferenceable(49) %0, ptr noundef %1, ptr noundef %2, ptr noundef %3) #1 align 2 {
  %5 = alloca ptr, align 8
  %6 = alloca ptr, align 8
  %7 = alloca ptr, align 8
  %8 = alloca ptr, align 8
  %9 = alloca ptr, align 8
  store ptr %0, ptr %5, align 8
  store ptr %1, ptr %6, align 8
  store ptr %2, ptr %7, align 8
  store ptr %3, ptr %8, align 8
  %10 = load ptr, ptr %5, align 8
  %11 = load ptr, ptr %6, align 8
  %12 = call noundef ptr @_ZN12MergeMemNode4makeEP4Node(ptr noundef %11)
  store ptr %12, ptr %9, align 8
  %13 = load ptr, ptr %9, align 8
  %14 = getelementptr inbounds %class.MemoryGraphFixer, ptr %10, i32 0, i32 1
  %15 = load i32, ptr %14, align 8
  %16 = load ptr, ptr %7, align 8
  call void @_ZN12MergeMemNode13set_memory_atEjP4Node(ptr noundef nonnull align 8 dereferenceable(52) %13, i32 noundef %15, ptr noundef %16)
  %17 = getelementptr inbounds %class.MemoryGraphFixer, ptr %10, i32 0, i32 3
  %18 = load ptr, ptr %17, align 8
  %19 = load ptr, ptr %9, align 8
  %20 = load ptr, ptr %8, align 8
  call void @_ZN14PhaseIdealLoop17register_new_nodeEP4NodeS1_(ptr noundef nonnull align 8 dereferenceable(237) %18, ptr noundef %19, ptr noundef %20)
  %21 = load ptr, ptr %9, align 8
  ret ptr %21
}