; Function Attrs: mustprogress nounwind uwtable
define hidden noundef ptr @_ZNK16MemoryGraphFixer18allocate_merge_memEP4NodeS1_S1_(ptr nocapture noundef nonnull readonly align 8 dereferenceable(49) %0, ptr noundef %1, ptr noundef %2, ptr noundef %3) local_unnamed_addr #0 align 2 {
  %5 = tail call noundef ptr @_ZN12MergeMemNode4makeEP4Node(ptr noundef %1) #10
  %6 = getelementptr inbounds i8, ptr %0, i64 32
  %7 = load i32, ptr %6, align 8
  tail call void @_ZN12MergeMemNode13set_memory_atEjP4Node(ptr noundef nonnull align 8 dereferenceable(52) %5, i32 noundef %7, ptr noundef %2) #10
  %8 = getelementptr inbounds i8, ptr %0, i64 40
  %9 = load ptr, ptr %8, align 8
  tail call void @_ZN14PhaseIdealLoop17register_new_nodeEP4NodeS1_(ptr noundef nonnull align 8 dereferenceable(237) %9, ptr noundef nonnull %5, ptr noundef %3) #10
  ret ptr %5
}